; Function Attrs: mustprogress uwtable
define void @_ZN7rocksdb26TransactionLogIteratorImpl4NextEv(ptr noundef nonnull align 8 dereferenceable(208) %this) unnamed_addr #2 align 2 {
entry:
  %current_status_ = getelementptr inbounds i8, ptr %this, i64 96
  %0 = load i8, ptr %current_status_, align 8
  %cmp.i = icmp eq i8 %0, 0
  br i1 %cmp.i, label %if.end, label %return

if.end:                                           ; preds = %entry
  tail call void @_ZN7rocksdb26TransactionLogIteratorImpl8NextImplEb(ptr noundef nonnull align 8 dereferenceable(208) %this, i1 noundef zeroext false)
  br label %return

return:                                           ; preds = %entry, %if.end
  ret void
}